target datalayout = "e-m:e-p270:32:32-p271:32:32-p272:64:64-i64:64-i128:128-f80:128-n8:16:32:64-S128"
target triple = "x86_64-pc-linux-gnu"

%"class.Imf_3_4::Context" = type { %"class.std::shared_ptr" }
%"class.std::shared_ptr" = type { %"class.std::__shared_ptr" }
%"class.std::__shared_ptr" = type { ptr, %"class.std::__shared_count" }
%"class.std::__shared_count" = type { ptr }
%"struct.Imf_3_4::TiledInputFile::Data" = type { ptr, i32, i32, %"class.Imf_3_4::Header", i8, i32, i32, i32, i32, i32, i32, %"class.std::vector", %"class.Imf_3_4::FrameBuffer", %"class.std::vector.11", %"class.std::vector.16", %"class.std::mutex" }
%"class.Imf_3_4::Header" = type <{ %"class.std::map", i8, [7 x i8] }>
%"class.std::map" = type { %"class.std::_Rb_tree" }
%"class.std::_Rb_tree" = type { %"struct.std::_Rb_tree<Imf_3_4::Name, std::pair<const Imf_3_4::Name, Imf_3_4::Attribute *>, std::_Select1st<std::pair<const Imf_3_4::Name, Imf_3_4::Attribute *>>, std::less<Imf_3_4::Name>>::_Rb_tree_impl" }
%"struct.std::_Rb_tree<Imf_3_4::Name, std::pair<const Imf_3_4::Name, Imf_3_4::Attribute *>, std::_Select1st<std::pair<const Imf_3_4::Name, Imf_3_4::Attribute *>>, std::less<Imf_3_4::Name>>::_Rb_tree_impl" = type { [8 x i8], %"struct.std::_Rb_tree_header" }
%"struct.std::_Rb_tree_header" = type { %"struct.std::_Rb_tree_node_base", i64 }
%"struct.std::_Rb_tree_node_base" = type { i32, ptr, ptr, ptr }
%"class.std::vector" = type { %"struct.std::_Vector_base" }
%"struct.std::_Vector_base" = type { %"struct.std::_Vector_base<char, std::allocator<char>>::_Vector_impl" }
%"struct.std::_Vector_base<char, std::allocator<char>>::_Vector_impl" = type { %"struct.std::_Vector_base<char, std::allocator<char>>::_Vector_impl_data" }
%"struct.std::_Vector_base<char, std::allocator<char>>::_Vector_impl_data" = type { ptr, ptr, ptr }
%"class.Imf_3_4::FrameBuffer" = type { %"class.std::map.6" }
%"class.std::map.6" = type { %"class.std::_Rb_tree.7" }
%"class.std::_Rb_tree.7" = type { %"struct.std::_Rb_tree<Imf_3_4::Name, std::pair<const Imf_3_4::Name, Imf_3_4::Slice>, std::_Select1st<std::pair<const Imf_3_4::Name, Imf_3_4::Slice>>, std::less<Imf_3_4::Name>>::_Rb_tree_impl" }
%"struct.std::_Rb_tree<Imf_3_4::Name, std::pair<const Imf_3_4::Name, Imf_3_4::Slice>, std::_Select1st<std::pair<const Imf_3_4::Name, Imf_3_4::Slice>>, std::less<Imf_3_4::Name>>::_Rb_tree_impl" = type { [8 x i8], %"struct.std::_Rb_tree_header" }
%"class.std::vector.11" = type { %"struct.std::_Vector_base.12" }
%"struct.std::_Vector_base.12" = type { %"struct.std::_Vector_base<Imf_3_4::Slice, std::allocator<Imf_3_4::Slice>>::_Vector_impl" }
%"struct.std::_Vector_base<Imf_3_4::Slice, std::allocator<Imf_3_4::Slice>>::_Vector_impl" = type { %"struct.std::_Vector_base<Imf_3_4::Slice, std::allocator<Imf_3_4::Slice>>::_Vector_impl_data" }
%"struct.std::_Vector_base<Imf_3_4::Slice, std::allocator<Imf_3_4::Slice>>::_Vector_impl_data" = type { ptr, ptr, ptr }
%"class.std::vector.16" = type { %"struct.std::_Vector_base.17" }
%"struct.std::_Vector_base.17" = type { %"struct.std::_Vector_base<std::__cxx11::basic_string<char>, std::allocator<std::__cxx11::basic_string<char>>>::_Vector_impl" }
%"struct.std::_Vector_base<std::__cxx11::basic_string<char>, std::allocator<std::__cxx11::basic_string<char>>>::_Vector_impl" = type { %"struct.std::_Vector_base<std::__cxx11::basic_string<char>, std::allocator<std::__cxx11::basic_string<char>>>::_Vector_impl_data" }
%"struct.std::_Vector_base<std::__cxx11::basic_string<char>, std::allocator<std::__cxx11::basic_string<char>>>::_Vector_impl_data" = type { ptr, ptr, ptr }
%"class.std::mutex" = type { %"class.std::__mutex_base" }
%"class.std::__mutex_base" = type { %union.pthread_mutex_t }
%union.pthread_mutex_t = type { %struct.__pthread_mutex_s }
%struct.__pthread_mutex_s = type { i32, i32, i32, i32, i32, i16, i16, %struct.__pthread_internal_list }
%struct.__pthread_internal_list = type { ptr, ptr }
%"class.Imf_3_4::TiledInputFile::Data::TileBufferTask" = type { %"class.IlmThread_3_4::Task", ptr, ptr, ptr, ptr }
%"class.IlmThread_3_4::Task" = type { ptr, ptr }

@_ZTISt9exception = external constant ptr
@.str.29 = private unnamed_addr constant [18 x i8] c"Unknown exception\00", align 1

; Function Attrs: mustprogress nounwind uwtable
define linkonce_odr hidden noundef ptr @_ZNKSt12__shared_ptrIP19_priv_exr_context_tLN9__gnu_cxx12_Lock_policyE2EE3getEv(ptr noundef nonnull align 8 dereferenceable(16) %0) #7 comdat align 2 {
  %2 = alloca ptr, align 8
  store ptr %0, ptr %2, align 8, !tbaa !241
  %3 = load ptr, ptr %2, align 8
  %4 = getelementptr inbounds nuw %"class.std::__shared_ptr", ptr %3, i32 0, i32 0
  %5 = load ptr, ptr %4, align 8, !tbaa !246
  ret ptr %5
}

; Function Attrs: mustprogress nounwind uwtable
define linkonce_odr hidden noundef ptr @_ZNKSt19__shared_ptr_accessIP19_priv_exr_context_tLN9__gnu_cxx12_Lock_policyE2ELb0ELb0EE6_M_getEv(ptr noundef nonnull align 1 dereferenceable(1) %0) #7 comdat align 2 {
  %2 = alloca ptr, align 8
  store ptr %0, ptr %2, align 8, !tbaa !291
  %3 = load ptr, ptr %2, align 8
  %4 = call noundef ptr @_ZNKSt12__shared_ptrIP19_priv_exr_context_tLN9__gnu_cxx12_Lock_policyE2EE3getEv(ptr noundef nonnull align 8 dereferenceable(16) %3) #3
  ret ptr %4
}

; Function Attrs: mustprogress nounwind uwtable
define linkonce_odr hidden noundef nonnull align 8 dereferenceable(8) ptr @_ZNKSt19__shared_ptr_accessIP19_priv_exr_context_tLN9__gnu_cxx12_Lock_policyE2ELb0ELb0EEdeEv(ptr noundef nonnull align 1 dereferenceable(1) %0) #7 comdat align 2 {
  %2 = alloca ptr, align 8
  store ptr %0, ptr %2, align 8, !tbaa !291
  %3 = load ptr, ptr %2, align 8
  br label %4

4:                                                ; preds = %1
  br label %5

5:                                                ; preds = %4
  br label %6

6:                                                ; preds = %5
  %7 = call noundef ptr @_ZNKSt19__shared_ptr_accessIP19_priv_exr_context_tLN9__gnu_cxx12_Lock_policyE2ELb0ELb0EE6_M_getEv(ptr noundef nonnull align 1 dereferenceable(1) %3) #3
  ret ptr %7
}

; Function Attrs: mustprogress nounwind uwtable
define linkonce_odr hidden noundef ptr @_ZNK7Imf_3_47ContextcvP19_priv_exr_context_tEv(ptr noundef nonnull align 8 dereferenceable(16) %0) #7 comdat align 2 {
  %2 = alloca ptr, align 8
  store ptr %0, ptr %2, align 8, !tbaa !14
  %3 = load ptr, ptr %2, align 8
  %4 = getelementptr inbounds nuw %"class.Imf_3_4::Context", ptr %3, i32 0, i32 0
  %5 = call noundef nonnull align 8 dereferenceable(8) ptr @_ZNKSt19__shared_ptr_accessIP19_priv_exr_context_tLN9__gnu_cxx12_Lock_policyE2ELb0ELb0EEdeEv(ptr noundef nonnull align 1 dereferenceable(1) %4) #3
  %6 = load ptr, ptr %5, align 8, !tbaa !149
  ret ptr %6
}

; Function Attrs: mustprogress uwtable
define hidden void @_ZN7Imf_3_414TiledInputFile4Data14TileBufferTask7executeEv(ptr noundef nonnull align 8 dereferenceable(48) %0) unnamed_addr #4 align 2 personality ptr @__gxx_personality_v0 {
  %2 = alloca ptr, align 8
  %3 = alloca ptr, align 8
  %4 = alloca i32, align 4
  %5 = alloca ptr, align 8
  store ptr %0, ptr %2, align 8, !tbaa !208
  %6 = load ptr, ptr %2, align 8
  %7 = getelementptr inbounds nuw %"class.Imf_3_4::TiledInputFile::Data::TileBufferTask", ptr %6, i32 0, i32 3
  %8 = load ptr, ptr %7, align 8, !tbaa !216
  %9 = getelementptr inbounds nuw %"class.Imf_3_4::TiledInputFile::Data::TileBufferTask", ptr %6, i32 0, i32 2
  %10 = load ptr, ptr %9, align 8, !tbaa !215
  %11 = getelementptr inbounds nuw %"struct.Imf_3_4::TiledInputFile::Data", ptr %10, i32 0, i32 0
  %12 = load ptr, ptr %11, align 8, !tbaa !27
  %13 = call noundef ptr @_ZNK7Imf_3_47ContextcvP19_priv_exr_context_tEv(ptr noundef nonnull align 8 dereferenceable(16) %12) #3
  %14 = getelementptr inbounds nuw %"class.Imf_3_4::TiledInputFile::Data::TileBufferTask", ptr %6, i32 0, i32 2
  %15 = load ptr, ptr %14, align 8, !tbaa !215
  %16 = getelementptr inbounds nuw %"struct.Imf_3_4::TiledInputFile::Data", ptr %15, i32 0, i32 1
  %17 = load i32, ptr %16, align 8, !tbaa !63
  %18 = getelementptr inbounds nuw %"class.Imf_3_4::TiledInputFile::Data::TileBufferTask", ptr %6, i32 0, i32 1
  %19 = load ptr, ptr %18, align 8, !tbaa !212
  %20 = getelementptr inbounds nuw %"class.Imf_3_4::TiledInputFile::Data::TileBufferTask", ptr %6, i32 0, i32 2
  %21 = load ptr, ptr %20, align 8, !tbaa !215
  %22 = getelementptr inbounds nuw %"struct.Imf_3_4::TiledInputFile::Data", ptr %21, i32 0, i32 13
  invoke void @_ZN7Imf_3_412_GLOBAL__N_111TileProcess10run_decodeEPK19_priv_exr_context_tiPKNS_11FrameBufferERKSt6vectorINS_5SliceESaIS9_EE(ptr noundef nonnull align 8 dereferenceable(584) %8, ptr noundef %13, i32 noundef %17, ptr noundef %19, ptr noundef nonnull align 8 dereferenceable(24) %22)
          to label %23 unwind label %24

23:                                               ; preds = %1
  br label %43

24:                                               ; preds = %1
  %25 = landingpad { ptr, i32 }
          catch ptr @_ZTISt9exception
          catch ptr null
  %26 = extractvalue { ptr, i32 } %25, 0
  store ptr %26, ptr %3, align 8
  %27 = extractvalue { ptr, i32 } %25, 1
  store i32 %27, ptr %4, align 4
  br label %28

28:                                               ; preds = %24
  %29 = load i32, ptr %4, align 4
  %30 = call i32 @llvm.eh.typeid.for.p0(ptr @_ZTISt9exception) #3
  %31 = icmp eq i32 %29, %30
  br i1 %31, label %32, label %44

32:                                               ; preds = %28
  call void @llvm.lifetime.start.p0(i64 8, ptr %5) #3
  %33 = load ptr, ptr %3, align 8
  %34 = call ptr @__cxa_begin_catch(ptr %33) #3
  store ptr %34, ptr %5, align 8
  %35 = getelementptr inbounds nuw %"class.Imf_3_4::TiledInputFile::Data::TileBufferTask", ptr %6, i32 0, i32 4
  %36 = load ptr, ptr %35, align 8, !tbaa !217
  %37 = load ptr, ptr %5, align 8, !tbaa !226
  %38 = load ptr, ptr %37, align 8, !tbaa !128
  %39 = getelementptr inbounds ptr, ptr %38, i64 2
  %40 = load ptr, ptr %39, align 8
  %41 = call noundef ptr %40(ptr noundef nonnull align 8 dereferenceable(8) %37) #3
  invoke void @_ZN13IlmThread_3_412ProcessGroupIN7Imf_3_412_GLOBAL__N_111TileProcessELb1EE14record_failureEPKc(ptr noundef nonnull align 8 dereferenceable(80) %36, ptr noundef %41)
          to label %42 unwind label %55

42:                                               ; preds = %32
  call void @__cxa_end_catch()
  call void @llvm.lifetime.end.p0(i64 8, ptr %5) #3
  br label %43

43:                                               ; preds = %42, %49, %23
  ret void

44:                                               ; preds = %28
  %45 = load ptr, ptr %3, align 8
  %46 = call ptr @__cxa_begin_catch(ptr %45) #3
  %47 = getelementptr inbounds nuw %"class.Imf_3_4::TiledInputFile::Data::TileBufferTask", ptr %6, i32 0, i32 4
  %48 = load ptr, ptr %47, align 8, !tbaa !217
  invoke void @_ZN13IlmThread_3_412ProcessGroupIN7Imf_3_412_GLOBAL__N_111TileProcessELb1EE14record_failureEPKc(ptr noundef nonnull align 8 dereferenceable(80) %48, ptr noundef @.str.29)
          to label %49 unwind label %50

49:                                               ; preds = %44
  call void @__cxa_end_catch()
  br label %43

50:                                               ; preds = %44
  %51 = landingpad { ptr, i32 }
          cleanup
  %52 = extractvalue { ptr, i32 } %51, 0
  store ptr %52, ptr %3, align 8
  %53 = extractvalue { ptr, i32 } %51, 1
  store i32 %53, ptr %4, align 4
  invoke void @__cxa_end_catch()
          to label %54 unwind label %65

54:                                               ; preds = %50
  br label %60

55:                                               ; preds = %32
  %56 = landingpad { ptr, i32 }
          cleanup
  %57 = extractvalue { ptr, i32 } %56, 0
  store ptr %57, ptr %3, align 8
  %58 = extractvalue { ptr, i32 } %56, 1
  store i32 %58, ptr %4, align 4
  invoke void @__cxa_end_catch()
          to label %59 unwind label %65

59:                                               ; preds = %55
  call void @llvm.lifetime.end.p0(i64 8, ptr %5) #3
  br label %60

60:                                               ; preds = %59, %54
  %61 = load ptr, ptr %3, align 8
  %62 = load i32, ptr %4, align 4
  %63 = insertvalue { ptr, i32 } poison, ptr %61, 0
  %64 = insertvalue { ptr, i32 } %63, i32 %62, 1
  resume { ptr, i32 } %64

65:                                               ; preds = %55, %50
  %66 = landingpad { ptr, i32 }
          catch ptr null
  %67 = extractvalue { ptr, i32 } %66, 0
  call void @__clang_call_terminate(ptr %67) #24
  unreachable
}