; Function Attrs: mustprogress uwtable
define hidden void @_ZN7Imf_3_414TiledInputFile4Data14TileBufferTask7executeEv(ptr noundef nonnull readonly align 8 captures(none) dereferenceable(48) %0) unnamed_addr #3 align 2 personality ptr @__gxx_personality_v0 {
  %2 = getelementptr inbounds nuw i8, ptr %0, i64 32
  %3 = load ptr, ptr %2, align 8, !tbaa !172
  %4 = getelementptr inbounds nuw i8, ptr %0, i64 24
  %5 = load ptr, ptr %4, align 8, !tbaa !151
  %6 = load ptr, ptr %5, align 8, !tbaa !20
  %7 = load ptr, ptr %6, align 8, !tbaa !77
  %8 = load ptr, ptr %7, align 8, !tbaa !81
  %9 = getelementptr inbounds nuw i8, ptr %5, i64 8
  %10 = load i32, ptr %9, align 8, !tbaa !58
  %11 = getelementptr inbounds nuw i8, ptr %0, i64 16
  %12 = load ptr, ptr %11, align 8, !tbaa !145
  %13 = getelementptr inbounds nuw i8, ptr %5, i64 176
  invoke fastcc void @_ZN7Imf_3_412_GLOBAL__N_111TileProcess10run_decodeEPK19_priv_exr_context_tiPKNS_11FrameBufferERKSt6vectorINS_5SliceESaIS9_EE(ptr noundef nonnull align 8 dereferenceable(584) %3, ptr noundef %8, i32 noundef %10, ptr noundef %12, ptr noundef nonnull align 8 dereferenceable(24) %13)
          to label %28 unwind label %14

14:                                               ; preds = %1
  %15 = landingpad { ptr, i32 }
          catch ptr @_ZTISt9exception
          catch ptr null
  %16 = extractvalue { ptr, i32 } %15, 0
  %17 = extractvalue { ptr, i32 } %15, 1
  %18 = tail call i32 @llvm.eh.typeid.for.p0(ptr nonnull @_ZTISt9exception) #28
  %19 = icmp eq i32 %17, %18
  %20 = tail call ptr @__cxa_begin_catch(ptr %16) #28
  %21 = getelementptr inbounds nuw i8, ptr %0, i64 40
  %22 = load ptr, ptr %21, align 8, !tbaa !173
  br i1 %19, label %23, label %29

23:                                               ; preds = %14
  %24 = load ptr, ptr %20, align 8, !tbaa !18
  %25 = getelementptr inbounds nuw i8, ptr %24, i64 16
  %26 = load ptr, ptr %25, align 8
  %27 = tail call noundef ptr %26(ptr noundef nonnull align 8 dereferenceable(8) %20) #28
  invoke fastcc void @_ZN13IlmThread_3_412ProcessGroupIN7Imf_3_412_GLOBAL__N_111TileProcessELb1EE14record_failureEPKc(ptr noundef nonnull align 8 dereferenceable(80) %22, ptr noundef %27)
          to label %.sink.split unwind label %32

.sink.split:                                      ; preds = %23, %29
  tail call void @__cxa_end_catch()
  br label %28

28:                                               ; preds = %.sink.split, %1
  ret void

29:                                               ; preds = %14
  invoke fastcc void @_ZN13IlmThread_3_412ProcessGroupIN7Imf_3_412_GLOBAL__N_111TileProcessELb1EE14record_failureEPKc(ptr noundef nonnull align 8 dereferenceable(80) %22, ptr noundef nonnull @.str.29)
          to label %.sink.split unwind label %30

30:                                               ; preds = %29
  %31 = landingpad { ptr, i32 }
          cleanup
  invoke void @__cxa_end_catch()
          to label %34 unwind label %35

32:                                               ; preds = %23
  %33 = landingpad { ptr, i32 }
          cleanup
  invoke void @__cxa_end_catch()
          to label %34 unwind label %35

34:                                               ; preds = %32, %30
  %.pn = phi { ptr, i32 } [ %31, %30 ], [ %33, %32 ]
  resume { ptr, i32 } %.pn

35:                                               ; preds = %32, %30
  %36 = landingpad { ptr, i32 }
          catch ptr null
  %37 = extractvalue { ptr, i32 } %36, 0
  tail call void @__clang_call_terminate(ptr %37) #32
  unreachable
}